(lp0
(iobjects
Sun
p1
(dp2
S'radius'
p3
I50
sS'Px'
p4
F1.1147789141857953e-006
sS'Py'
p5
F-9.6640858405857337e-007
sS'mass'
p6
L4000000000000L
sS'inshadow'
p7
I0
sS'groups'
p8
(lp9
g0
asS'Vx'
p10
F1.2834092555066245e-008
sS'Vy'
p11
F-4.7016596485039425e-009
sba(iobjects
Asteroid
p12
(dp13
g3
I9
sg4
F-40.45722990407274
sg5
F73.151467860743011
sg6
I10000
sg7
I0
sg8
(lp14
g0
asg10
F-1.5501795148144086
sg11
F-0.89791142669589752
sba(iobjects
Asteroid
p15
(dp16
g3
I10
sg4
F137.69443957254606
sg5
F-1.6862715766094776
sg6
I10000
sg7
I0
sg8
(lp17
g0
asg10
F0.010089868425129619
sg11
F1.3883473620620019
sba(iobjects
Asteroid
p18
(dp19
g3
I10
sg4
F141.9823468285326
sg5
F-151.17490547988319
sg6
I10000
sg7
I0
sg8
(lp20
g0
asg10
F0.82542873236939973
sg11
F0.77634232532935321
sba(iobjects
Asteroid
p21
(dp22
g3
I6
sg4
F113.30779980362541
sg5
F-259.54315299029241
sg6
I10000
sg7
I0
sg8
(lp23
g0
asg10
F0.88918898868498075
sg11
F0.38833299507153191
sba(iobjects
Asteroid
p24
(dp25
g3
I6
sg4
F85.030489819576772
sg5
F-346.8352086431463
sg6
I10000
sg7
I0
sg8
(lp26
g0
asg10
F0.83937372379032404
sg11
F0.20581043200821916
sba.